; ModuleID = '49/295.c'
source_filename = "49/295.c"
target datalayout = "e-m:e-p270:32:32-p271:32:32-p272:64:64-i64:64-f80:128-n8:16:32:64-S128"
target triple = "x86_64-pc-linux-gnu"

@.str = private unnamed_addr constant [6 x i8] c"%c%c\0A\00", align 1
@.str.1 = private unnamed_addr constant [3 x i8] c"%c\00", align 1
@.str.2 = private unnamed_addr constant [2 x i8] c"\0A\00", align 1

; Function Attrs: noinline nounwind uwtable
define dso_local i32 @main() #0 {
  %1 = alloca i32, align 4
  %2 = alloca [500 x i8], align 16
  %3 = alloca i32, align 4
  %4 = alloca i32, align 4
  %5 = alloca i32, align 4
  %6 = alloca i32, align 4
  %7 = alloca i32, align 4
  store i32 0, i32* %1, align 4
  store i32 2, i32* %4, align 4
  %8 = getelementptr inbounds [500 x i8], [500 x i8]* %2, i64 0, i64 0
  %9 = call i32 (i8*, ...) bitcast (i32 (...)* @gets to i32 (i8*, ...)*)(i8* %8)
  %10 = getelementptr inbounds [500 x i8], [500 x i8]* %2, i64 0, i64 0
  %11 = call i64 @strlen(i8* %10) #3
  %12 = trunc i64 %11 to i32
  store i32 %12, i32* %5, align 4
  store i32 0, i32* %7, align 4
  br label %13

13:                                               ; preds = %131, %0
  %14 = load i32, i32* %7, align 4
  %15 = load i32, i32* %5, align 4
  %16 = icmp slt i32 %14, %15
  br i1 %16, label %17, label %134

17:                                               ; preds = %13
  store i32 0, i32* %3, align 4
  br label %18

18:                                               ; preds = %127, %17
  %19 = load i32, i32* %3, align 4
  %20 = load i32, i32* %5, align 4
  %21 = load i32, i32* %7, align 4
  %22 = sub nsw i32 %20, %21
  %23 = icmp slt i32 %19, %22
  br i1 %23, label %24, label %27

24:                                               ; preds = %18
  %25 = load i32, i32* %3, align 4
  %26 = icmp sge i32 %25, 0
  br label %27

27:                                               ; preds = %24, %18
  %28 = phi i1 [ false, %18 ], [ %26, %24 ]
  br i1 %28, label %29, label %130

29:                                               ; preds = %27
  store i32 1, i32* %6, align 4
  %30 = load i32, i32* %3, align 4
  %31 = sext i32 %30 to i64
  %32 = getelementptr inbounds [500 x i8], [500 x i8]* %2, i64 0, i64 %31
  %33 = load i8, i8* %32, align 1
  %34 = sext i8 %33 to i32
  %35 = load i32, i32* %3, align 4
  %36 = load i32, i32* %7, align 4
  %37 = add nsw i32 %35, %36
  %38 = add nsw i32 %37, 1
  %39 = sext i32 %38 to i64
  %40 = getelementptr inbounds [500 x i8], [500 x i8]* %2, i64 0, i64 %39
  %41 = load i8, i8* %40, align 1
  %42 = sext i8 %41 to i32
  %43 = icmp eq i32 %34, %42
  br i1 %43, label %44, label %126

44:                                               ; preds = %29
  %45 = load i32, i32* %3, align 4
  %46 = add nsw i32 %45, 1
  %47 = load i32, i32* %3, align 4
  %48 = load i32, i32* %7, align 4
  %49 = add nsw i32 %47, %48
  %50 = add nsw i32 %49, 1
  %51 = icmp eq i32 %46, %50
  br i1 %51, label %52, label %65

52:                                               ; preds = %44
  %53 = load i32, i32* %3, align 4
  %54 = sext i32 %53 to i64
  %55 = getelementptr inbounds [500 x i8], [500 x i8]* %2, i64 0, i64 %54
  %56 = load i8, i8* %55, align 1
  %57 = sext i8 %56 to i32
  %58 = load i32, i32* %3, align 4
  %59 = add nsw i32 %58, 1
  %60 = sext i32 %59 to i64
  %61 = getelementptr inbounds [500 x i8], [500 x i8]* %2, i64 0, i64 %60
  %62 = load i8, i8* %61, align 1
  %63 = sext i8 %62 to i32
  %64 = call i32 (i8*, ...) @printf(i8* getelementptr inbounds ([6 x i8], [6 x i8]* @.str, i64 0, i64 0), i32 %57, i32 %63)
  br label %125

65:                                               ; preds = %44
  store i32 1, i32* %4, align 4
  br label %66

66:                                               ; preds = %97, %65
  %67 = load i32, i32* %4, align 4
  %68 = load i32, i32* %7, align 4
  %69 = sdiv i32 %68, 2
  %70 = icmp sle i32 %67, %69
  br i1 %70, label %71, label %100

71:                                               ; preds = %66
  %72 = load i32, i32* %3, align 4
  %73 = load i32, i32* %4, align 4
  %74 = add nsw i32 %72, %73
  %75 = sext i32 %74 to i64
  %76 = getelementptr inbounds [500 x i8], [500 x i8]* %2, i64 0, i64 %75
  %77 = load i8, i8* %76, align 1
  %78 = sext i8 %77 to i32
  %79 = load i32, i32* %3, align 4
  %80 = load i32, i32* %7, align 4
  %81 = add nsw i32 %79, %80
  %82 = add nsw i32 %81, 1
  %83 = load i32, i32* %4, align 4
  %84 = sub nsw i32 %82, %83
  %85 = sext i32 %84 to i64
  %86 = getelementptr inbounds [500 x i8], [500 x i8]* %2, i64 0, i64 %85
  %87 = load i8, i8* %86, align 1
  %88 = sext i8 %87 to i32
  %89 = icmp eq i32 %78, %88
  br i1 %89, label %90, label %93

90:                                               ; preds = %71
  %91 = load i32, i32* %6, align 4
  %92 = mul nsw i32 %91, 1
  store i32 %92, i32* %6, align 4
  br label %96

93:                                               ; preds = %71
  %94 = load i32, i32* %6, align 4
  %95 = mul nsw i32 %94, 0
  store i32 %95, i32* %6, align 4
  br label %96

96:                                               ; preds = %93, %90
  br label %97

97:                                               ; preds = %96
  %98 = load i32, i32* %4, align 4
  %99 = add nsw i32 %98, 1
  store i32 %99, i32* %4, align 4
  br label %66

100:                                              ; preds = %66
  %101 = load i32, i32* %6, align 4
  %102 = icmp eq i32 %101, 1
  br i1 %102, label %103, label %124

103:                                              ; preds = %100
  %104 = load i32, i32* %3, align 4
  store i32 %104, i32* %4, align 4
  br label %105

105:                                              ; preds = %119, %103
  %106 = load i32, i32* %4, align 4
  %107 = load i32, i32* %3, align 4
  %108 = load i32, i32* %7, align 4
  %109 = add nsw i32 %107, %108
  %110 = add nsw i32 %109, 1
  %111 = icmp sle i32 %106, %110
  br i1 %111, label %112, label %122

112:                                              ; preds = %105
  %113 = load i32, i32* %4, align 4
  %114 = sext i32 %113 to i64
  %115 = getelementptr inbounds [500 x i8], [500 x i8]* %2, i64 0, i64 %114
  %116 = load i8, i8* %115, align 1
  %117 = sext i8 %116 to i32
  %118 = call i32 (i8*, ...) @printf(i8* getelementptr inbounds ([3 x i8], [3 x i8]* @.str.1, i64 0, i64 0), i32 %117)
  br label %119

119:                                              ; preds = %112
  %120 = load i32, i32* %4, align 4
  %121 = add nsw i32 %120, 1
  store i32 %121, i32* %4, align 4
  br label %105

122:                                              ; preds = %105
  %123 = call i32 (i8*, ...) @printf(i8* getelementptr inbounds ([2 x i8], [2 x i8]* @.str.2, i64 0, i64 0))
  br label %124

124:                                              ; preds = %122, %100
  br label %125

125:                                              ; preds = %124, %52
  br label %126

126:                                              ; preds = %125, %29
  br label %127

127:                                              ; preds = %126
  %128 = load i32, i32* %3, align 4
  %129 = add nsw i32 %128, 1
  store i32 %129, i32* %3, align 4
  br label %18

130:                                              ; preds = %27
  br label %131

131:                                              ; preds = %130
  %132 = load i32, i32* %7, align 4
  %133 = add nsw i32 %132, 1
  store i32 %133, i32* %7, align 4
  br label %13

134:                                              ; preds = %13
  ret i32 0
}

declare dso_local i32 @gets(...) #1

; Function Attrs: nounwind readonly
declare dso_local i64 @strlen(i8*) #2

declare dso_local i32 @printf(i8*, ...) #1


!llvm.module.flags = !{!0}
!llvm.ident = !{!1}

!0 = !{i32 1, !"wchar_size", i32 4}
!1 = !{!"clang version 10.0.0-4ubuntu1 "}
